target datalayout = "e-m:e-p270:32:32-p271:32:32-p272:64:64-i64:64-i128:128-f80:128-n8:16:32:64-S128"
target triple = "x86_64-unknown-linux-gnu"

%"class.absl::lts_20230802::Cleanup" = type { %"class.absl::lts_20230802::cleanup_internal::Storage" }
%"class.absl::lts_20230802::cleanup_internal::Storage" = type { i8, [7 x i8], [16 x i8] }
%class.anon = type <{ ptr, i32, [4 x i8] }>

; Function Attrs: mustprogress nounwind uwtable
define internal noundef ptr @"_ZN4absl12lts_2023080216cleanup_internal7StorageIZN17grpc_event_engine12experimental12_GLOBAL__N_113PrepareSocketERKNS4_15PosixTcpOptionsERNS4_24ListenerSocketsContainer14ListenerSocketEE3$_0E17GetCallbackBufferEv"(ptr noundef nonnull align 8 dereferenceable(24) %this) #5 align 2 {
entry:
  %this.addr = alloca ptr, align 8
  store ptr %this, ptr %this.addr, align 8
  %this1 = load ptr, ptr %this.addr, align 8
  %callback_buffer_ = getelementptr inbounds %"class.absl::lts_20230802::cleanup_internal::Storage", ptr %this1, i32 0, i32 2
  %arraydecay = getelementptr inbounds [16 x i8], ptr %callback_buffer_, i64 0, i64 0
  ret ptr %arraydecay
}

; Function Attrs: mustprogress uwtable
define internal void @"_ZZN17grpc_event_engine12experimental12_GLOBAL__N_113PrepareSocketERKNS0_15PosixTcpOptionsERNS0_24ListenerSocketsContainer14ListenerSocketEENK3$_0clEv"(ptr noundef nonnull align 8 dereferenceable(12) %this) #4 align 2 {
entry:
  %this.addr = alloca ptr, align 8
  store ptr %this, ptr %this.addr, align 8
  %this1 = load ptr, ptr %this.addr, align 8
  %0 = getelementptr inbounds %class.anon, ptr %this1, i32 0, i32 0
  %1 = load ptr, ptr %0, align 8
  %2 = load i8, ptr %1, align 1
  %tobool = trunc i8 %2 to i1
  br i1 %tobool, label %land.lhs.true, label %if.end

land.lhs.true:                                    ; preds = %entry
  %3 = getelementptr inbounds %class.anon, ptr %this1, i32 0, i32 1
  %4 = load i32, ptr %3, align 8
  %cmp = icmp sge i32 %4, 0
  br i1 %cmp, label %if.then, label %if.end

if.then:                                          ; preds = %land.lhs.true
  %5 = getelementptr inbounds %class.anon, ptr %this1, i32 0, i32 1
  %6 = load i32, ptr %5, align 8
  %call = call i32 @close(i32 noundef %6)
  br label %if.end

if.end:                                           ; preds = %if.then, %land.lhs.true, %entry
  ret void
}

; Function Attrs: mustprogress nounwind uwtable
define internal noundef nonnull align 8 dereferenceable(12) ptr @"_ZN4absl12lts_2023080216cleanup_internal7StorageIZN17grpc_event_engine12experimental12_GLOBAL__N_113PrepareSocketERKNS4_15PosixTcpOptionsERNS4_24ListenerSocketsContainer14ListenerSocketEE3$_0E11GetCallbackEv"(ptr noundef nonnull align 8 dereferenceable(24) %this) #5 align 2 {
entry:
  %this.addr = alloca ptr, align 8
  store ptr %this, ptr %this.addr, align 8
  %this1 = load ptr, ptr %this.addr, align 8
  %call = call noundef ptr @"_ZN4absl12lts_2023080216cleanup_internal7StorageIZN17grpc_event_engine12experimental12_GLOBAL__N_113PrepareSocketERKNS4_15PosixTcpOptionsERNS4_24ListenerSocketsContainer14ListenerSocketEE3$_0E17GetCallbackBufferEv"(ptr noundef nonnull align 8 dereferenceable(24) %this1)
  ret ptr %call
}

; Function Attrs: mustprogress nounwind uwtable
define internal void @"_ZN4absl12lts_2023080216cleanup_internal7StorageIZN17grpc_event_engine12experimental12_GLOBAL__N_113PrepareSocketERKNS4_15PosixTcpOptionsERNS4_24ListenerSocketsContainer14ListenerSocketEE3$_0E15DestroyCallbackEv"(ptr noundef nonnull align 8 dereferenceable(24) %this) #5 align 2 {
entry:
  %this.addr = alloca ptr, align 8
  store ptr %this, ptr %this.addr, align 8
  %this1 = load ptr, ptr %this.addr, align 8
  %is_callback_engaged_ = getelementptr inbounds %"class.absl::lts_20230802::cleanup_internal::Storage", ptr %this1, i32 0, i32 0
  store i8 0, ptr %is_callback_engaged_, align 8
  %call = call noundef nonnull align 8 dereferenceable(12) ptr @"_ZN4absl12lts_2023080216cleanup_internal7StorageIZN17grpc_event_engine12experimental12_GLOBAL__N_113PrepareSocketERKNS4_15PosixTcpOptionsERNS4_24ListenerSocketsContainer14ListenerSocketEE3$_0E11GetCallbackEv"(ptr noundef nonnull align 8 dereferenceable(24) %this1)
  ret void
}

; Function Attrs: mustprogress uwtable
define internal void @"_ZN4absl12lts_2023080216cleanup_internal7StorageIZN17grpc_event_engine12experimental12_GLOBAL__N_113PrepareSocketERKNS4_15PosixTcpOptionsERNS4_24ListenerSocketsContainer14ListenerSocketEE3$_0E14InvokeCallbackEv"(ptr noundef nonnull align 8 dereferenceable(24) %this) #4 align 2 {
entry:
  %this.addr = alloca ptr, align 8
  store ptr %this, ptr %this.addr, align 8
  %this1 = load ptr, ptr %this.addr, align 8
  %call = call noundef nonnull align 8 dereferenceable(12) ptr @"_ZN4absl12lts_2023080216cleanup_internal7StorageIZN17grpc_event_engine12experimental12_GLOBAL__N_113PrepareSocketERKNS4_15PosixTcpOptionsERNS4_24ListenerSocketsContainer14ListenerSocketEE3$_0E11GetCallbackEv"(ptr noundef nonnull align 8 dereferenceable(24) %this1)
  call void @"_ZZN17grpc_event_engine12experimental12_GLOBAL__N_113PrepareSocketERKNS0_15PosixTcpOptionsERNS0_24ListenerSocketsContainer14ListenerSocketEENK3$_0clEv"(ptr noundef nonnull align 8 dereferenceable(12) %call)
  ret void
}

; Function Attrs: mustprogress nounwind uwtable
define internal noundef zeroext i1 @"_ZNK4absl12lts_2023080216cleanup_internal7StorageIZN17grpc_event_engine12experimental12_GLOBAL__N_113PrepareSocketERKNS4_15PosixTcpOptionsERNS4_24ListenerSocketsContainer14ListenerSocketEE3$_0E17IsCallbackEngagedEv"(ptr noundef nonnull align 8 dereferenceable(24) %this) #5 align 2 {
entry:
  %this.addr = alloca ptr, align 8
  store ptr %this, ptr %this.addr, align 8
  %this1 = load ptr, ptr %this.addr, align 8
  %is_callback_engaged_ = getelementptr inbounds %"class.absl::lts_20230802::cleanup_internal::Storage", ptr %this1, i32 0, i32 0
  %0 = load i8, ptr %is_callback_engaged_, align 8
  %tobool = trunc i8 %0 to i1
  ret i1 %tobool
}

; Function Attrs: mustprogress nounwind uwtable
define internal void @"_ZN4absl12lts_202308027CleanupINS0_16cleanup_internal3TagEZN17grpc_event_engine12experimental12_GLOBAL__N_113PrepareSocketERKNS5_15PosixTcpOptionsERNS5_24ListenerSocketsContainer14ListenerSocketEE3$_0ED2Ev"(ptr noundef nonnull align 8 dereferenceable(24) %this) unnamed_addr #5 align 2 personality ptr @__gxx_personality_v0 {
entry:
  %this.addr = alloca ptr, align 8
  store ptr %this, ptr %this.addr, align 8
  %this1 = load ptr, ptr %this.addr, align 8
  %storage_ = getelementptr inbounds %"class.absl::lts_20230802::Cleanup", ptr %this1, i32 0, i32 0
  %call = invoke noundef zeroext i1 @"_ZNK4absl12lts_2023080216cleanup_internal7StorageIZN17grpc_event_engine12experimental12_GLOBAL__N_113PrepareSocketERKNS4_15PosixTcpOptionsERNS4_24ListenerSocketsContainer14ListenerSocketEE3$_0E17IsCallbackEngagedEv"(ptr noundef nonnull align 8 dereferenceable(24) %storage_)
          to label %invoke.cont unwind label %terminate.lpad

invoke.cont:                                      ; preds = %entry
  br i1 %call, label %if.then, label %if.end

if.then:                                          ; preds = %invoke.cont
  %storage_2 = getelementptr inbounds %"class.absl::lts_20230802::Cleanup", ptr %this1, i32 0, i32 0
  invoke void @"_ZN4absl12lts_2023080216cleanup_internal7StorageIZN17grpc_event_engine12experimental12_GLOBAL__N_113PrepareSocketERKNS4_15PosixTcpOptionsERNS4_24ListenerSocketsContainer14ListenerSocketEE3$_0E14InvokeCallbackEv"(ptr noundef nonnull align 8 dereferenceable(24) %storage_2)
          to label %invoke.cont3 unwind label %terminate.lpad

invoke.cont3:                                     ; preds = %if.then
  %storage_4 = getelementptr inbounds %"class.absl::lts_20230802::Cleanup", ptr %this1, i32 0, i32 0
  invoke void @"_ZN4absl12lts_2023080216cleanup_internal7StorageIZN17grpc_event_engine12experimental12_GLOBAL__N_113PrepareSocketERKNS4_15PosixTcpOptionsERNS4_24ListenerSocketsContainer14ListenerSocketEE3$_0E15DestroyCallbackEv"(ptr noundef nonnull align 8 dereferenceable(24) %storage_4)
          to label %invoke.cont5 unwind label %terminate.lpad

invoke.cont5:                                     ; preds = %invoke.cont3
  br label %if.end

if.end:                                           ; preds = %invoke.cont5, %invoke.cont
  ret void

terminate.lpad:                                   ; preds = %invoke.cont3, %if.then, %entry
  %0 = landingpad { ptr, i32 }
          catch ptr null
  %1 = extractvalue { ptr, i32 } %0, 0
  call void @__clang_call_terminate(ptr %1) #13
  unreachable
}