; Function Attrs: mustprogress nounwind uwtable
define internal fastcc void @"_ZN4absl12lts_202308027CleanupINS0_16cleanup_internal3TagEZN17grpc_event_engine12experimental12_GLOBAL__N_113PrepareSocketERKNS5_15PosixTcpOptionsERNS5_24ListenerSocketsContainer14ListenerSocketEE3$_0ED2Ev"(ptr nocapture noundef nonnull align 8 dereferenceable(24) %this) unnamed_addr #5 align 2 personality ptr @__gxx_personality_v0 {
entry:
  %this.val = load i8, ptr %this, align 8
  %0 = and i8 %this.val, 1
  %tobool.i.not = icmp eq i8 %0, 0
  br i1 %tobool.i.not, label %if.end, label %if.then

if.then:                                          ; preds = %entry
  %1 = getelementptr inbounds i8, ptr %this, i64 8
  %this.val1 = load ptr, ptr %1, align 8
  %2 = getelementptr inbounds i8, ptr %this, i64 16
  %this.val2 = load i32, ptr %2, align 8
  %this.val1.val = load i8, ptr %this.val1, align 1
  %3 = and i8 %this.val1.val, 1
  %tobool.not.i.i = icmp ne i8 %3, 0
  %cmp.i.i = icmp sgt i32 %this.val2, -1
  %or.cond.i.i = select i1 %tobool.not.i.i, i1 %cmp.i.i, i1 false
  br i1 %or.cond.i.i, label %if.then.i.i, label %invoke.cont3

if.then.i.i:                                      ; preds = %if.then
  %call.i.i3 = invoke i32 @close(i32 noundef %this.val2)
          to label %invoke.cont3 unwind label %terminate.lpad

invoke.cont3:                                     ; preds = %if.then, %if.then.i.i
  store i8 0, ptr %this, align 8
  br label %if.end

if.end:                                           ; preds = %invoke.cont3, %entry
  ret void

terminate.lpad:                                   ; preds = %if.then.i.i
  %4 = landingpad { ptr, i32 }
          catch ptr null
  %5 = extractvalue { ptr, i32 } %4, 0
  tail call void @__clang_call_terminate(ptr %5) #17
  unreachable
}